; Function Attrs: mustprogress nofree norecurse nosync nounwind willreturn memory(read, inaccessiblemem: none) uwtable
define hidden noundef ptr @_ZN5zxing9BitMatrix13getRowBoolPtrEi(ptr nocapture noundef nonnull readonly align 8 dereferenceable(346) %0, i32 noundef %1) local_unnamed_addr #3 align 2 {
  %3 = getelementptr inbounds i8, ptr %0, i64 20
  %4 = load i32, ptr %3, align 4
  %5 = mul nsw i32 %4, %1
  %6 = getelementptr inbounds i8, ptr %0, i64 312
  %7 = load ptr, ptr %6, align 8
  %8 = getelementptr inbounds i8, ptr %7, i64 16
  %9 = load ptr, ptr %8, align 8
  %10 = sext i32 %5 to i64
  %11 = getelementptr inbounds i8, ptr %9, i64 %10
  ret ptr %11
}